Certificate:
    Data:
        Version: 3 (0x2)
        Serial Number:
            4c:ac:0c:d1:d9:48:0c:ba:c8:ec:82:0e:d0:fa:7d:fe:92:5d:4c:be
        Signature Algorithm: ecdsa-with-SHA1
        Issuer: C=de, O=example, CN=ca
        Validity
            Not Before: Jan  1 00:00:00 2018 GMT
            Not After : Feb  1 13:42:06 2025 GMT
        Subject: C=de, O=example, CN=alice
        Subject Public Key Info:
            Public Key Algorithm: id-ecPublicKey
                Public-Key: (320 bit)
                pub:
                    04:29:ad:11:bf:6a:66:0d:d1:d4:95:68:7f:71:37:
                    6d:de:90:dc:d0:65:3c:b7:bb:8a:5a:5c:4e:dc:d2:
                    21:23:1f:5f:b4:57:cb:91:09:1b:f9:1c:c8:59:58:
                    21:9a:18:06:d1:55:32:eb:44:28:89:8e:50:14:10:
                    db:bb:3b:04:ca:6f:f3:88:37:bf:00:8b:66:77:52:
                    07:28:c5:9e:06:c0
                ASN1 OID: brainpoolP320r1
        X509v3 extensions:
            X509v3 Basic Constraints: 
                CA:FALSE
            X509v3 Subject Key Identifier: 
                30:47:69:15:38:6D:3B:5F:60:54:E6:10:92:5D:DD:0F:0C:37:CC:32
            X509v3 Authority Key Identifier: 
                keyid:A0:65:21:BD:12:70:0C:24:BF:E1:12:6A:56:CB:95:47:22:55:7B:7F

            X509v3 Subject Alternative Name: 
                email:alice@example.de
    Signature Algorithm: ecdsa-with-SHA1
         30:54:02:28:48:aa:67:b5:d6:44:bf:8d:14:1c:a0:61:46:ce:
         8f:e0:f3:8d:8a:ef:20:9b:ce:04:82:ce:a6:72:63:53:d0:91:
         9e:82:80:d9:98:4f:03:0c:02:28:28:f4:41:43:73:be:6b:62:
         ce:1d:a5:f6:4b:0b:de:87:b7:04:91:bc:82:b6:56:4b:c0:a3:
         ce:93:98:5a:b7:12:8e:76:95:00:ac:46:18:55
-----BEGIN CERTIFICATE-----
MIIB5TCCAX2gAwIBAgIUTKwM0dlIDLrI7IIO0Pp9/pJdTL4wCQYHKoZIzj0EATAs
MQswCQYDVQQGEwJkZTEQMA4GA1UECgwHZXhhbXBsZTELMAkGA1UEAwwCY2EwHhcN
MTgwMTAxMDAwMDAwWhcNMjUwMjAxMTM0MjA2WjAvMQswCQYDVQQGEwJkZTEQMA4G
A1UECgwHZXhhbXBsZTEOMAwGA1UEAwwFYWxpY2UwajAUBgcqhkjOPQIBBgkrJAMD
AggBAQkDUgAEKa0Rv2pmDdHUlWh/cTdt3pDc0GU8t7uKWlxO3NIhIx9ftFfLkQkb
+RzIWVghmhgG0VUy60QoiY5QFBDbuzsEym/ziDe/AItmd1IHKMWeBsCjajBoMAkG
A1UdEwQCMAAwHQYDVR0OBBYEFDBHaRU4bTtfYFTmEJJd3Q8MN8wyMB8GA1UdIwQY
MBaAFKBlIb0ScAwkv+ESalbLlUciVXt/MBsGA1UdEQQUMBKBEGFsaWNlQGV4YW1w
bGUuZGUwCQYHKoZIzj0EAQNXADBUAihIqme11kS/jRQcoGFGzo/g842K7yCbzgSC
zqZyY1PQkZ6CgNmYTwMMAigo9EFDc75rYs4dpfZLC96HtwSRvIK2VkvAo86TmFq3
Eo52lQCsRhhV
-----END CERTIFICATE-----
